Certificate:
    Data:
        Version: 1 (0x0)
        Serial Number: 6 (0x6)
        Signature Algorithm: md5WithRSAEncryption
        Issuer: O=RCF CA A, L=Canberra, ST=Australian Capital Territory, C=AU
        Validity
            Not Before: Jul 14 02:45:36 2013 GMT
            Not After : Jul 12 02:45:36 2023 GMT
        Subject: C=AU, ST=Australian Capital Territory, O=RCF CA A, CN=localhost
        Subject Public Key Info:
            Public Key Algorithm: rsaEncryption
            RSA Public Key: (1024 bit)
                Modulus (1024 bit):
                    00:d4:fb:d8:a0:7b:a4:9a:d3:3d:02:5c:87:7d:2d:
                    51:8a:05:d5:33:48:c5:f4:4e:56:92:4e:c3:6c:c9:
                    60:bd:e8:93:13:7f:d7:5d:5f:aa:ee:d1:40:5d:96:
                    cf:b9:d0:29:ca:9d:88:a8:43:d5:e7:37:6f:9c:68:
                    cb:e0:0b:9e:bf:d0:1b:07:df:ac:95:c7:3f:13:32:
                    e8:95:e7:13:e6:13:1f:cf:a0:8f:56:6b:68:ae:5d:
                    f6:a1:0f:68:ef:c7:4c:2b:a3:99:5a:6b:e8:37:f7:
                    13:cb:a1:a9:1f:d3:fa:21:e4:74:e5:85:ed:f0:e8:
                    d4:3b:97:8f:c5:47:ba:75:1b
                Exponent: 65537 (0x10001)
    Signature Algorithm: md5WithRSAEncryption
        9a:68:42:a2:ac:8b:97:b1:84:f4:2c:d3:5a:e5:44:bc:90:61:
        fa:31:a0:fa:e7:df:c5:9b:3c:04:95:f0:4f:a6:39:19:01:17:
        b1:16:28:42:fb:16:5a:6c:30:57:b9:d6:bd:77:64:69:ae:e0:
        a7:3d:c7:41:c4:27:61:d8:45:bd:78:1d:2a:00:5d:46:25:7d:
        b4:f7:92:0b:ff:db:f1:10:7d:ce:4c:a5:f9:2e:ec:2b:f4:33:
        83:80:58:be:ad:c2:78:3c:50:2e:38:72:32:ee:4d:b1:a9:8e:
        7e:e9:6e:40:c8:28:b7:d9:19:6d:89:8c:8d:b7:3b:77:42:64:
        72:2d
-----BEGIN CERTIFICATE-----
MIICJDCCAY0CAQYwDQYJKoZIhvcNAQEEBQAwWjERMA8GA1UEChMIUkNGIENBIEEx
ETAPBgNVBAcTCENhbmJlcnJhMSUwIwYDVQQIExxBdXN0cmFsaWFuIENhcGl0YWwg
VGVycml0b3J5MQswCQYDVQQGEwJBVTAeFw0xMzA3MTQwMjQ1MzZaFw0yMzA3MTIw
MjQ1MzZaMFsxCzAJBgNVBAYTAkFVMSUwIwYDVQQIExxBdXN0cmFsaWFuIENhcGl0
YWwgVGVycml0b3J5MREwDwYDVQQKEwhSQ0YgQ0EgQTESMBAGA1UEAxMJbG9jYWxo
b3N0MIGfMA0GCSqGSIb3DQEBAQUAA4GNADCBiQKBgQDU+9ige6Sa0z0CXId9LVGK
BdUzSMX0TlaSTsNsyWC96JMTf9ddX6ru0UBdls+50CnKnYioQ9XnN2+caMvgC56/
0BsH36yVxz8TMuiV5xPmEx/PoI9Wa2iuXfahD2jvx0wro5laa+g39xPLoakf0/oh
5HTlhe3w6NQ7l4/FR7p1GwIDAQABMA0GCSqGSIb3DQEBBAUAA4GBAJpoQqKsi5ex
hPQs01rlRLyQYfoxoPrn38WbPASV8E+mORkBF7EWKEL7FlpsMFe51r13ZGmu4Kc9
x0HEJ2HYRb14HSoAXUYlfbT3kgv/2/EQfc5Mpfku7Cv0M4OAWL6twng8UC44cjLu
TbGpjn7pbkDIKLfZGW2JjI23O3dCZHIt
-----END CERTIFICATE-----
-----BEGIN RSA PRIVATE KEY-----
MIICXAIBAAKBgQDU+9ige6Sa0z0CXId9LVGKBdUzSMX0TlaSTsNsyWC96JMTf9dd
X6ru0UBdls+50CnKnYioQ9XnN2+caMvgC56/0BsH36yVxz8TMuiV5xPmEx/PoI9W
a2iuXfahD2jvx0wro5laa+g39xPLoakf0/oh5HTlhe3w6NQ7l4/FR7p1GwIDAQAB
AoGAFHh8Urhvkr344DA6iYqAis6StlIpTJj28ysE14DnfnlLIZWpAn1+dWPBVv12
y7o5OhM4Hkwe1BFc9eCQr+EOCd6muHeA1ei6h+jcp7qzyMIsWvEvR5HQXMt82HfC
OqAAKoVR25+kYueOMI0N4t02hslr0oKYLZubatUcfi+T/CECQQD28/N2C92bjyxs
GpqqRHo1w3+il1cMm5YgX55lEge2T+dkhdGHcUfpmozaeIqDp/UuqAWF7OHWHSoe
Qw88F39xAkEA3MlQtx5do67mb3vnBjU/+UbO+XLTZH5jZH+P6QVS3M91Zxe5HQl3
4OLeKePQpWh8nPv7LBJx9liuXmHAUyiPSwJBAIPSLqhZpx6Na3H9NYgj63Rdefkp
fc7+EkIPqHZdDH7V4jd3cyQwZOmelQddhtrGQgt4pxIZI2fuw3fJ5gz2ohECQEeT
RAV5ZKXxx2aQ5l5O2QR4/hREM1+60YH9EKxcO3a2ErtvJ2XQcfqH0boGztcwvmUu
E0lAWY2hRjX2vqC2320CQAoOcz2Z8YaZzJGqrNnAZxbCznCcbRpkFIJuBYJjy88r
tk0eqNEfCksCsjzUwewjNz24ScYJfIW+X2fl8SVMGbE=
-----END RSA PRIVATE KEY-----
