Certificate:
    Data:
        Version: 1 (0x0)
        Serial Number: 6 (0x6)
        Signature Algorithm: md5WithRSAEncryption
        Issuer: O=RCF CA B, L=Canberra, ST=Australian Capital Territory, C=AU
        Validity
            Not Before: Jul 14 02:57:19 2013 GMT
            Not After : Jul 12 02:57:19 2023 GMT
        Subject: C=AU, ST=Australian Capital Territory, O=RCF CA B, CN=localhost
        Subject Public Key Info:
            Public Key Algorithm: rsaEncryption
            RSA Public Key: (1024 bit)
                Modulus (1024 bit):
                    00:b3:53:e9:eb:6c:39:a6:0c:80:31:b1:38:52:bd:
                    65:df:fd:32:ed:d1:35:ba:61:c5:5b:cb:54:82:1f:
                    fb:9c:e4:67:b8:54:b3:61:5a:bb:e4:64:58:94:40:
                    75:04:df:03:8d:ab:c3:8a:7b:2b:4f:0c:86:a2:cb:
                    66:f3:c8:ef:3a:0f:48:0e:fb:16:d4:2a:c7:38:93:
                    23:b1:d6:ae:2f:71:f3:1e:85:1f:50:2c:e2:2c:07:
                    7e:4d:80:c6:52:08:76:14:89:42:41:d6:09:e4:76:
                    f9:39:38:d2:a5:bc:ab:25:b0:52:e1:47:d4:05:59:
                    24:c9:b9:f0:1d:5f:49:80:ad
                Exponent: 65537 (0x10001)
    Signature Algorithm: md5WithRSAEncryption
        10:c3:0f:00:41:ac:75:83:56:e0:c5:e6:b1:d3:2a:f2:0a:3d:
        6d:2b:e1:9b:e3:56:3e:26:1c:ab:24:86:d5:cd:31:e5:3f:a7:
        35:59:72:b5:c5:55:8e:83:19:c2:9b:1d:f9:24:ad:d4:fc:78:
        ef:b4:e2:5e:3c:ac:43:d7:89:4d:1a:62:cf:af:c8:5f:48:b5:
        1d:a1:5e:e4:ab:de:30:4d:b2:b4:9e:ac:99:ef:4c:0c:69:21:
        eb:87:77:ca:64:cf:46:03:91:c7:2e:df:74:3e:bf:21:a8:5a:
        45:69:a6:e8:37:bc:3b:06:25:e7:52:af:db:d8:aa:e1:61:29:
        c6:e9
-----BEGIN CERTIFICATE-----
MIICJDCCAY0CAQYwDQYJKoZIhvcNAQEEBQAwWjERMA8GA1UEChMIUkNGIENBIEIx
ETAPBgNVBAcTCENhbmJlcnJhMSUwIwYDVQQIExxBdXN0cmFsaWFuIENhcGl0YWwg
VGVycml0b3J5MQswCQYDVQQGEwJBVTAeFw0xMzA3MTQwMjU3MTlaFw0yMzA3MTIw
MjU3MTlaMFsxCzAJBgNVBAYTAkFVMSUwIwYDVQQIExxBdXN0cmFsaWFuIENhcGl0
YWwgVGVycml0b3J5MREwDwYDVQQKEwhSQ0YgQ0EgQjESMBAGA1UEAxMJbG9jYWxo
b3N0MIGfMA0GCSqGSIb3DQEBAQUAA4GNADCBiQKBgQCzU+nrbDmmDIAxsThSvWXf
/TLt0TW6YcVby1SCH/uc5Ge4VLNhWrvkZFiUQHUE3wONq8OKeytPDIaiy2bzyO86
D0gO+xbUKsc4kyOx1q4vcfMehR9QLOIsB35NgMZSCHYUiUJB1gnkdvk5ONKlvKsl
sFLhR9QFWSTJufAdX0mArQIDAQABMA0GCSqGSIb3DQEBBAUAA4GBABDDDwBBrHWD
VuDF5rHTKvIKPW0r4ZvjVj4mHKskhtXNMeU/pzVZcrXFVY6DGcKbHfkkrdT8eO+0
4l48rEPXiU0aYs+vyF9ItR2hXuSr3jBNsrSerJnvTAxpIeuHd8pkz0YDkccu33Q+
vyGoWkVppug3vDsGJedSr9vYquFhKcbp
-----END CERTIFICATE-----
-----BEGIN RSA PRIVATE KEY-----
MIICXAIBAAKBgQCzU+nrbDmmDIAxsThSvWXf/TLt0TW6YcVby1SCH/uc5Ge4VLNh
WrvkZFiUQHUE3wONq8OKeytPDIaiy2bzyO86D0gO+xbUKsc4kyOx1q4vcfMehR9Q
LOIsB35NgMZSCHYUiUJB1gnkdvk5ONKlvKslsFLhR9QFWSTJufAdX0mArQIDAQAB
AoGAJwDDSc76IuFpKGWxKF3FQJhjcVIla2pEcJiiwsKOCSusW20grrX7U8t3cJcs
XGjc7v1CxGXRn5nL1rCCrdcwIITseUGUQRmrmNY8gx9bEAp/GucXAkR5xsAVS6/v
FMzJMIcFurVO+/bJFsLxEl4UTBswNFuCdR7SC5Gh3lv8nAECQQDtbb0dTegUnHOK
Z12VP06psWjame3i0gKMaOEBCsy98KxGIJpw/rNzANNbmVSjXxgcmqq1ZLJHSqAj
2H1GxAUtAkEAwVrD+3/QNtdtP8/z69VCmYEnmZq7V/aZ4E4AZPVfyxP8LQlE64hi
hF1N+hs6fBB+qV+kq9DDcI03IkLfdfeZgQJBALvbjjx3fd+BAnJJ4uPJ2WWut3Xv
QSesXtPVz+HRN7o5iTVbapdpD3c4+gKJyUwSW7OWNOedKun5g8eY7VZmlmkCQAiJ
x4m9lSY20R42QqExY6V/rI395TP3MchT6XSL2VUQZtxeQmrcNO1/aUgYF7cOy2kT
TiRALcE0mzCqH1AIRQECQBtD6I+FS9iJJN2nGNbwsBsGmNCw2IgOpMjOy1sMSodf
rVbaO/vh9/4HsE5pYJkkwEv6QqRousCY9+N5jnWGsJg=
-----END RSA PRIVATE KEY-----
